target datalayout = "e-m:e-p270:32:32-p271:32:32-p272:64:64-i64:64-i128:128-f80:128-n8:16:32:64-S128"
target triple = "x86_64-pc-linux-gnu"

%struct._zend_executor_globals = type { %struct._zval_struct, %struct._zval_struct, [32 x ptr], ptr, ptr, %struct._zend_array, %struct._zend_array, ptr, i32, i32, ptr, ptr, ptr, ptr, ptr, ptr, i64, ptr, ptr, i32, i32, i64, i32, i32, i32, i8, i8, %struct.zend_atomic_bool_s, %struct.zend_atomic_bool_s, ptr, i64, ptr, ptr, %struct._zend_array, %struct._zend_array, i32, i8, %struct._zval_struct, %struct._zval_struct, %struct._zend_stack, %struct._zend_stack, %struct._zend_stack, ptr, i32, i32, i64, ptr, ptr, ptr, %struct._zend_objects_store, ptr, ptr, ptr, [3 x %struct._zend_op], ptr, i8, i8, i64, i32, i32, ptr, [16 x %struct._HashTableIterator], ptr, %union._zend_function, %struct._zend_op, %struct._zend_array, i64, %struct.zend_get_gc_buffer, ptr, ptr, ptr, i64, i8, i32, ptr, ptr, i64, %struct._zend_call_stack, i64, i64, [6 x ptr] }
%struct.zend_atomic_bool_s = type { i8 }
%struct._zval_struct = type { %union._zend_value, %union.anon, %union.anon.2 }
%union._zend_value = type { i64 }
%union.anon = type { i32 }
%union.anon.2 = type { i32 }
%struct._zend_stack = type { i32, i32, i32, ptr }
%struct._zend_objects_store = type { ptr, i32, i32, i32 }
%struct._HashTableIterator = type { ptr, i32, i32 }
%union._zend_function = type { %struct._zend_op_array }
%struct._zend_op_array = type { i8, [3 x i8], i32, ptr, ptr, ptr, i32, i32, ptr, ptr, ptr, ptr, i32, i32, i32, i32, ptr, ptr, ptr, ptr, ptr, i32, i32, ptr, ptr, ptr, i32, i32, i32, i32, ptr, ptr, [6 x ptr] }
%struct._zend_op = type { ptr, %union._znode_op, %union._znode_op, %union._znode_op, i32, i32, i8, i8, i8, i8 }
%union._znode_op = type { i32 }
%struct._zend_array = type { %struct._zend_refcounted_h, %union.anon.5, i32, %union.anon.7, i32, i32, i32, i32, i64, ptr }
%struct._zend_refcounted_h = type { i32, %union.anon.4 }
%union.anon.4 = type { i32 }
%union.anon.5 = type { i32 }
%union.anon.7 = type { ptr }
%struct.zend_get_gc_buffer = type { ptr, ptr, ptr }
%struct._zend_call_stack = type { ptr, i64 }
%struct._zend_execute_data = type { ptr, ptr, ptr, ptr, %struct._zval_struct, ptr, ptr, ptr, ptr }

@executor_globals = external global %struct._zend_executor_globals, align 8

; Function Attrs: nounwind uwtable
define hidden void @zif_token_get_all(ptr noundef %0, ptr noundef %1) #0 {
  %3 = alloca ptr, align 8
  %4 = alloca ptr, align 8
  %5 = alloca i1, align 1
  %6 = alloca ptr, align 8
  %7 = alloca ptr, align 8
  %8 = alloca ptr, align 8
  %9 = alloca i8, align 1
  %10 = alloca i32, align 4
  %11 = alloca i8, align 1
  %12 = alloca ptr, align 8
  %13 = alloca ptr, align 8
  %14 = alloca i1, align 1
  %15 = alloca ptr, align 8
  %16 = alloca ptr, align 8
  %17 = alloca i8, align 1
  %18 = alloca i32, align 4
  %19 = alloca i8, align 1
  %20 = alloca ptr, align 8
  %21 = alloca ptr, align 8
  %22 = alloca ptr, align 8
  %23 = alloca i8, align 1
  %24 = alloca i32, align 4
  %25 = alloca ptr, align 8
  %26 = alloca ptr, align 8
  %27 = alloca i8, align 1
  %28 = alloca i32, align 4
  %29 = alloca ptr, align 8
  %30 = alloca ptr, align 8
  %31 = alloca ptr, align 8
  %32 = alloca i64, align 8
  %33 = alloca i32, align 4
  %34 = alloca i32, align 4
  %35 = alloca i32, align 4
  %36 = alloca i32, align 4
  %37 = alloca i32, align 4
  %38 = alloca ptr, align 8
  %39 = alloca ptr, align 8
  %40 = alloca i32, align 4
  %41 = alloca ptr, align 8
  %42 = alloca i8, align 1
  %43 = alloca i8, align 1
  %44 = alloca i32, align 4
  store ptr %0, ptr %29, align 8
  store ptr %1, ptr %30, align 8
  store i64 0, ptr %32, align 8
  br label %45

45:                                               ; preds = %2
  store i32 0, ptr %33, align 4
  store i32 1, ptr %34, align 4
  store i32 2, ptr %35, align 4
  %46 = load ptr, ptr %29, align 8
  %47 = getelementptr inbounds %struct._zend_execute_data, ptr %46, i32 0, i32 4
  %48 = getelementptr inbounds %struct._zval_struct, ptr %47, i32 0, i32 2
  %49 = load i32, ptr %48, align 4
  store i32 %49, ptr %36, align 4
  store i32 0, ptr %37, align 4
  store ptr null, ptr %39, align 8
  store i32 0, ptr %40, align 4
  store ptr null, ptr %41, align 8
  store i8 0, ptr %42, align 1
  store i8 0, ptr %43, align 1
  store i32 0, ptr %44, align 4
  br label %50

50:                                               ; preds = %45
  %51 = load i32, ptr %36, align 4
  %52 = load i32, ptr %34, align 4
  %53 = icmp ult i32 %51, %52
  %54 = xor i1 %53, true
  %55 = xor i1 %54, true
  %56 = zext i1 %55 to i32
  %57 = sext i32 %56 to i64
  %58 = icmp ne i64 %57, 0
  br i1 %58, label %68, label %59

59:                                               ; preds = %50
  %60 = load i32, ptr %36, align 4
  %61 = load i32, ptr %35, align 4
  %62 = icmp ugt i32 %60, %61
  %63 = xor i1 %62, true
  %64 = xor i1 %63, true
  %65 = zext i1 %64 to i32
  %66 = sext i32 %65 to i64
  %67 = icmp ne i64 %66, 0
  br i1 %67, label %68, label %71

68:                                               ; preds = %59, %50
  %69 = load i32, ptr %34, align 4
  %70 = load i32, ptr %35, align 4
  call void @zend_wrong_parameters_count_error(i32 noundef %69, i32 noundef %70)
  store i32 1, ptr %44, align 4
  br label %275

71:                                               ; preds = %59
  %72 = load ptr, ptr %29, align 8
  %73 = getelementptr inbounds %struct._zval_struct, ptr %72, i64 4
  store ptr %73, ptr %38, align 8
  %74 = load i32, ptr %37, align 4
  %75 = add i32 %74, 1
  store i32 %75, ptr %37, align 4
  %76 = load i32, ptr %37, align 4
  %77 = load i32, ptr %34, align 4
  %78 = icmp ule i32 %76, %77
  br i1 %78, label %84, label %79

79:                                               ; preds = %71
  %80 = load i8, ptr %43, align 1
  %81 = trunc i8 %80 to i1
  %82 = zext i1 %81 to i32
  %83 = icmp eq i32 %82, 1
  br label %84

84:                                               ; preds = %79, %71
  %85 = phi i1 [ true, %71 ], [ %83, %79 ]
  call void @llvm.assume(i1 %85)
  %86 = load i32, ptr %37, align 4
  %87 = load i32, ptr %34, align 4
  %88 = icmp ugt i32 %86, %87
  br i1 %88, label %94, label %89

89:                                               ; preds = %84
  %90 = load i8, ptr %43, align 1
  %91 = trunc i8 %90 to i1
  %92 = zext i1 %91 to i32
  %93 = icmp eq i32 %92, 0
  br label %94

94:                                               ; preds = %89, %84
  %95 = phi i1 [ true, %84 ], [ %93, %89 ]
  call void @llvm.assume(i1 %95)
  %96 = load i8, ptr %43, align 1
  %97 = trunc i8 %96 to i1
  br i1 %97, label %98, label %109

98:                                               ; preds = %94
  %99 = load i32, ptr %37, align 4
  %100 = load i32, ptr %36, align 4
  %101 = icmp ugt i32 %99, %100
  %102 = xor i1 %101, true
  %103 = xor i1 %102, true
  %104 = zext i1 %103 to i32
  %105 = sext i32 %104 to i64
  %106 = icmp ne i64 %105, 0
  br i1 %106, label %107, label %108

107:                                              ; preds = %98
  br label %275

108:                                              ; preds = %98
  br label %109

109:                                              ; preds = %108, %94
  %110 = load ptr, ptr %38, align 8
  %111 = getelementptr inbounds %struct._zval_struct, ptr %110, i32 1
  store ptr %111, ptr %38, align 8
  %112 = load ptr, ptr %38, align 8
  store ptr %112, ptr %39, align 8
  %113 = load ptr, ptr %39, align 8
  %114 = load i32, ptr %37, align 4
  store ptr %113, ptr %25, align 8
  store ptr %31, ptr %26, align 8
  store i8 0, ptr %27, align 1
  store i32 %114, ptr %28, align 4
  %115 = load ptr, ptr %25, align 8
  %116 = load ptr, ptr %26, align 8
  %117 = load i8, ptr %27, align 1
  %118 = trunc i8 %117 to i1
  %119 = load i32, ptr %28, align 4
  store ptr %115, ptr %15, align 8
  store ptr %116, ptr %16, align 8
  %120 = zext i1 %118 to i8
  store i8 %120, ptr %17, align 1
  store i32 %119, ptr %18, align 4
  store i8 0, ptr %19, align 1
  %121 = load ptr, ptr %15, align 8
  store ptr %121, ptr %12, align 8
  %122 = load ptr, ptr %12, align 8
  %123 = getelementptr inbounds %struct._zval_struct, ptr %122, i32 0, i32 1
  %124 = load i8, ptr %123, align 8
  %125 = zext i8 %124 to i32
  %126 = icmp eq i32 %125, 6
  br i1 %126, label %127, label %131

127:                                              ; preds = %109
  %128 = load ptr, ptr %15, align 8
  %129 = load ptr, ptr %128, align 8
  %130 = load ptr, ptr %16, align 8
  store ptr %129, ptr %130, align 8
  br label %156

131:                                              ; preds = %109
  %132 = load i8, ptr %17, align 1
  %133 = trunc i8 %132 to i1
  br i1 %133, label %134, label %143

134:                                              ; preds = %131
  %135 = load ptr, ptr %15, align 8
  store ptr %135, ptr %13, align 8
  %136 = load ptr, ptr %13, align 8
  %137 = getelementptr inbounds %struct._zval_struct, ptr %136, i32 0, i32 1
  %138 = load i8, ptr %137, align 8
  %139 = zext i8 %138 to i32
  %140 = icmp eq i32 %139, 1
  br i1 %140, label %141, label %143

141:                                              ; preds = %134
  %142 = load ptr, ptr %16, align 8
  store ptr null, ptr %142, align 8
  br label %156

143:                                              ; preds = %134, %131
  %144 = load i8, ptr %19, align 1
  %145 = trunc i8 %144 to i1
  br i1 %145, label %146, label %151

146:                                              ; preds = %143
  %147 = load ptr, ptr %15, align 8
  %148 = load ptr, ptr %16, align 8
  %149 = load i32, ptr %18, align 4
  %150 = call zeroext i1 @zend_flf_parse_arg_str_slow(ptr noundef %147, ptr noundef %148, i32 noundef %149) #9
  store i1 %150, ptr %14, align 1
  br label %157

151:                                              ; preds = %143
  %152 = load ptr, ptr %15, align 8
  %153 = load ptr, ptr %16, align 8
  %154 = load i32, ptr %18, align 4
  %155 = call zeroext i1 @zend_parse_arg_str_slow(ptr noundef %152, ptr noundef %153, i32 noundef %154) #9
  store i1 %155, ptr %14, align 1
  br label %157

156:                                              ; preds = %141, %127
  store i1 true, ptr %14, align 1
  br label %157

157:                                              ; preds = %156, %151, %146
  %158 = load i1, ptr %14, align 1
  %159 = xor i1 %158, true
  %160 = xor i1 %159, true
  %161 = xor i1 %160, true
  %162 = zext i1 %161 to i32
  %163 = sext i32 %162 to i64
  %164 = icmp ne i64 %163, 0
  br i1 %164, label %165, label %166

165:                                              ; preds = %157
  store i32 4, ptr %40, align 4
  store i32 9, ptr %44, align 4
  br label %275

166:                                              ; preds = %157
  store i8 1, ptr %43, align 1
  %167 = load i32, ptr %37, align 4
  %168 = add i32 %167, 1
  store i32 %168, ptr %37, align 4
  %169 = load i32, ptr %37, align 4
  %170 = load i32, ptr %34, align 4
  %171 = icmp ule i32 %169, %170
  br i1 %171, label %177, label %172

172:                                              ; preds = %166
  %173 = load i8, ptr %43, align 1
  %174 = trunc i8 %173 to i1
  %175 = zext i1 %174 to i32
  %176 = icmp eq i32 %175, 1
  br label %177

177:                                              ; preds = %172, %166
  %178 = phi i1 [ true, %166 ], [ %176, %172 ]
  call void @llvm.assume(i1 %178)
  %179 = load i32, ptr %37, align 4
  %180 = load i32, ptr %34, align 4
  %181 = icmp ugt i32 %179, %180
  br i1 %181, label %187, label %182

182:                                              ; preds = %177
  %183 = load i8, ptr %43, align 1
  %184 = trunc i8 %183 to i1
  %185 = zext i1 %184 to i32
  %186 = icmp eq i32 %185, 0
  br label %187

187:                                              ; preds = %182, %177
  %188 = phi i1 [ true, %177 ], [ %186, %182 ]
  call void @llvm.assume(i1 %188)
  %189 = load i8, ptr %43, align 1
  %190 = trunc i8 %189 to i1
  br i1 %190, label %191, label %202

191:                                              ; preds = %187
  %192 = load i32, ptr %37, align 4
  %193 = load i32, ptr %36, align 4
  %194 = icmp ugt i32 %192, %193
  %195 = xor i1 %194, true
  %196 = xor i1 %195, true
  %197 = zext i1 %196 to i32
  %198 = sext i32 %197 to i64
  %199 = icmp ne i64 %198, 0
  br i1 %199, label %200, label %201

200:                                              ; preds = %191
  br label %275

201:                                              ; preds = %191
  br label %202

202:                                              ; preds = %201, %187
  %203 = load ptr, ptr %38, align 8
  %204 = getelementptr inbounds %struct._zval_struct, ptr %203, i32 1
  store ptr %204, ptr %38, align 8
  %205 = load ptr, ptr %38, align 8
  store ptr %205, ptr %39, align 8
  %206 = load ptr, ptr %39, align 8
  %207 = load i32, ptr %37, align 4
  store ptr %206, ptr %20, align 8
  store ptr %32, ptr %21, align 8
  store ptr %42, ptr %22, align 8
  store i8 0, ptr %23, align 1
  store i32 %207, ptr %24, align 4
  %208 = load ptr, ptr %20, align 8
  %209 = load ptr, ptr %21, align 8
  %210 = load ptr, ptr %22, align 8
  %211 = load i8, ptr %23, align 1
  %212 = trunc i8 %211 to i1
  %213 = load i32, ptr %24, align 4
  store ptr %208, ptr %6, align 8
  store ptr %209, ptr %7, align 8
  store ptr %210, ptr %8, align 8
  %214 = zext i1 %212 to i8
  store i8 %214, ptr %9, align 1
  store i32 %213, ptr %10, align 4
  store i8 0, ptr %11, align 1
  %215 = load i8, ptr %9, align 1
  %216 = trunc i8 %215 to i1
  br i1 %216, label %217, label %219

217:                                              ; preds = %202
  %218 = load ptr, ptr %8, align 8
  store i8 0, ptr %218, align 1
  br label %219

219:                                              ; preds = %217, %202
  %220 = load ptr, ptr %6, align 8
  store ptr %220, ptr %3, align 8
  %221 = load ptr, ptr %3, align 8
  %222 = getelementptr inbounds %struct._zval_struct, ptr %221, i32 0, i32 1
  %223 = load i8, ptr %222, align 8
  %224 = zext i8 %223 to i32
  %225 = icmp eq i32 %224, 4
  br i1 %225, label %226, label %230

226:                                              ; preds = %219
  %227 = load ptr, ptr %6, align 8
  %228 = load i64, ptr %227, align 8
  %229 = load ptr, ptr %7, align 8
  store i64 %228, ptr %229, align 8
  br label %256

230:                                              ; preds = %219
  %231 = load i8, ptr %9, align 1
  %232 = trunc i8 %231 to i1
  br i1 %232, label %233, label %243

233:                                              ; preds = %230
  %234 = load ptr, ptr %6, align 8
  store ptr %234, ptr %4, align 8
  %235 = load ptr, ptr %4, align 8
  %236 = getelementptr inbounds %struct._zval_struct, ptr %235, i32 0, i32 1
  %237 = load i8, ptr %236, align 8
  %238 = zext i8 %237 to i32
  %239 = icmp eq i32 %238, 1
  br i1 %239, label %240, label %243

240:                                              ; preds = %233
  %241 = load ptr, ptr %8, align 8
  store i8 1, ptr %241, align 1
  %242 = load ptr, ptr %7, align 8
  store i64 0, ptr %242, align 8
  br label %256

243:                                              ; preds = %233, %230
  %244 = load i8, ptr %11, align 1
  %245 = trunc i8 %244 to i1
  br i1 %245, label %246, label %251

246:                                              ; preds = %243
  %247 = load ptr, ptr %6, align 8
  %248 = load ptr, ptr %7, align 8
  %249 = load i32, ptr %10, align 4
  %250 = call zeroext i1 @zend_flf_parse_arg_long_slow(ptr noundef %247, ptr noundef %248, i32 noundef %249) #9
  store i1 %250, ptr %5, align 1
  br label %257

251:                                              ; preds = %243
  %252 = load ptr, ptr %6, align 8
  %253 = load ptr, ptr %7, align 8
  %254 = load i32, ptr %10, align 4
  %255 = call zeroext i1 @zend_parse_arg_long_slow(ptr noundef %252, ptr noundef %253, i32 noundef %254) #9
  store i1 %255, ptr %5, align 1
  br label %257

256:                                              ; preds = %240, %226
  store i1 true, ptr %5, align 1
  br label %257

257:                                              ; preds = %256, %251, %246
  %258 = load i1, ptr %5, align 1
  %259 = xor i1 %258, true
  %260 = xor i1 %259, true
  %261 = xor i1 %260, true
  %262 = zext i1 %261 to i32
  %263 = sext i32 %262 to i64
  %264 = icmp ne i64 %263, 0
  br i1 %264, label %265, label %266

265:                                              ; preds = %257
  store i32 0, ptr %40, align 4
  store i32 9, ptr %44, align 4
  br label %275

266:                                              ; preds = %257
  %267 = load i32, ptr %37, align 4
  %268 = load i32, ptr %35, align 4
  %269 = icmp eq i32 %267, %268
  br i1 %269, label %273, label %270

270:                                              ; preds = %266
  %271 = load i32, ptr %35, align 4
  %272 = icmp eq i32 %271, -1
  br label %273

273:                                              ; preds = %270, %266
  %274 = phi i1 [ true, %266 ], [ %272, %270 ]
  call void @llvm.assume(i1 %274)
  br label %275

275:                                              ; preds = %273, %265, %200, %165, %107, %68
  %276 = load i32, ptr %44, align 4
  %277 = icmp ne i32 %276, 0
  %278 = xor i1 %277, true
  %279 = xor i1 %278, true
  %280 = zext i1 %279 to i32
  %281 = sext i32 %280 to i64
  %282 = icmp ne i64 %281, 0
  br i1 %282, label %283, label %289

283:                                              ; preds = %275
  %284 = load i32, ptr %44, align 4
  %285 = load i32, ptr %37, align 4
  %286 = load ptr, ptr %41, align 8
  %287 = load i32, ptr %40, align 4
  %288 = load ptr, ptr %39, align 8
  call void @zend_wrong_parameter_error(i32 noundef %284, i32 noundef %285, ptr noundef %286, i32 noundef %287, ptr noundef %288)
  br label %300

289:                                              ; preds = %275
  br label %290

290:                                              ; preds = %289
  %291 = load ptr, ptr %30, align 8
  %292 = load ptr, ptr %31, align 8
  %293 = load i64, ptr %32, align 8
  %294 = call zeroext i1 @tokenize_common(ptr noundef %291, ptr noundef %292, i64 noundef %293, ptr noundef null)
  br i1 %294, label %300, label %295

295:                                              ; preds = %290
  br label %296

296:                                              ; preds = %295
  %297 = load ptr, ptr getelementptr inbounds (%struct._zend_executor_globals, ptr @executor_globals, i32 0, i32 50), align 8
  %298 = icmp ne ptr %297, null
  call void @llvm.assume(i1 %298)
  br label %300

299:                                              ; No predecessors!
  br label %300

300:                                              ; preds = %299, %296, %290, %283
  ret void
}