; Function Attrs: nounwind uwtable
define hidden void @zif_token_get_all(ptr noundef %0, ptr nocapture noundef %1) #0 {
  %3 = alloca ptr, align 8
  %4 = alloca i64, align 8
  store i64 0, ptr %4, align 8
  %5 = getelementptr inbounds i8, ptr %0, i64 44
  %6 = load i32, ptr %5, align 4
  %7 = add i32 %6, -3
  %or.cond = icmp ult i32 %7, -2
  br i1 %or.cond, label %8, label %9

8:                                                ; preds = %2
  tail call void @zend_wrong_parameters_count_error(i32 noundef 1, i32 noundef 2) #10
  br label %.thread113

9:                                                ; preds = %2
  %10 = getelementptr inbounds i8, ptr %0, i64 80
  %11 = getelementptr inbounds i8, ptr %0, i64 88
  %12 = load i8, ptr %11, align 8
  %13 = icmp eq i8 %12, 6
  br i1 %13, label %.critedge, label %15

.critedge:                                        ; preds = %9
  %14 = load ptr, ptr %10, align 8
  store ptr %14, ptr %3, align 8
  br label %17

15:                                               ; preds = %9
  %16 = call zeroext i1 @zend_parse_arg_str_slow(ptr noundef nonnull %10, ptr noundef nonnull %3, i32 noundef 1) #10
  br i1 %16, label %17, label %.thread113

17:                                               ; preds = %15, %.critedge
  %18 = icmp eq i32 %6, 1
  br i1 %18, label %.thread123, label %19

19:                                               ; preds = %17
  %20 = getelementptr inbounds i8, ptr %0, i64 96
  %21 = getelementptr inbounds i8, ptr %0, i64 104
  %22 = load i8, ptr %21, align 8
  %23 = icmp eq i8 %22, 4
  br i1 %23, label %.thread102, label %25

.thread102:                                       ; preds = %19
  %24 = load i64, ptr %20, align 8
  store i64 %24, ptr %4, align 8
  br label %.thread123

25:                                               ; preds = %19
  %26 = call zeroext i1 @zend_parse_arg_long_slow(ptr noundef nonnull %20, ptr noundef nonnull %4, i32 noundef 2) #10
  %.fr = freeze i1 %26
  br i1 %.fr, label %..thread123_crit_edge, label %.thread113

..thread123_crit_edge:                            ; preds = %25
  %.pre = load i64, ptr %4, align 8
  br label %.thread123

.thread113:                                       ; preds = %15, %8, %25
  %.0122 = phi i32 [ 9, %25 ], [ 9, %15 ], [ 1, %8 ]
  %.090121 = phi i32 [ 0, %25 ], [ 4, %15 ], [ 0, %8 ]
  %.091120 = phi ptr [ %20, %25 ], [ %10, %15 ], [ null, %8 ]
  %.092119 = phi i32 [ 2, %25 ], [ 1, %15 ], [ 0, %8 ]
  call void @zend_wrong_parameter_error(i32 noundef %.0122, i32 noundef %.092119, ptr noundef null, i32 noundef %.090121, ptr noundef %.091120) #10
  br label %33

.thread123:                                       ; preds = %..thread123_crit_edge, %.thread102, %17
  %27 = phi i64 [ %.pre, %..thread123_crit_edge ], [ %24, %.thread102 ], [ 0, %17 ]
  %28 = load ptr, ptr %3, align 8
  %29 = call fastcc zeroext i1 @tokenize_common(ptr noundef %1, ptr noundef %28, i64 noundef %27, ptr noundef null)
  br i1 %29, label %33, label %30

30:                                               ; preds = %.thread123
  %31 = load ptr, ptr getelementptr inbounds (%struct._zend_executor_globals, ptr @executor_globals, i64 0, i32 50), align 8
  %32 = icmp ne ptr %31, null
  call void @llvm.assume(i1 %32)
  br label %33

33:                                               ; preds = %30, %.thread123, %.thread113
  ret void
}